; Function Attrs: mustprogress nounwind willreturn uwtable
define void @Gia_ManRingAdd(ptr noundef readonly captures(none) %0, i32 noundef %1, ptr noundef captures(none) %2, ptr noundef readonly captures(none) %3, i32 noundef %4) local_unnamed_addr #26 {
  %6 = getelementptr i8, ptr %0, i64 176
  %.val8 = load i32, ptr %6, align 8
  %7 = getelementptr i8, ptr %0, i64 616
  %.val9 = load ptr, ptr %7, align 8
  %8 = sext i32 %1 to i64
  %9 = getelementptr inbounds i32, ptr %.val9, i64 %8
  %10 = load i32, ptr %9, align 4
  %.not = icmp eq i32 %10, %.val8
  br i1 %.not, label %45, label %11

11:                                               ; preds = %5
  store i32 %.val8, ptr %9, align 4
  %12 = getelementptr i8, ptr %3, i64 8
  %.val = load ptr, ptr %12, align 8
  %13 = getelementptr inbounds i32, ptr %.val, i64 %8
  store i32 %4, ptr %13, align 4
  %14 = getelementptr inbounds nuw i8, ptr %2, i64 4
  %15 = load i32, ptr %14, align 4
  %16 = load i32, ptr %2, align 8
  %17 = icmp eq i32 %15, %16
  br i1 %17, label %18, label %.Vec_IntGrow.exit10_crit_edge.i

.Vec_IntGrow.exit10_crit_edge.i:                  ; preds = %11
  %.phi.trans.insert.i = getelementptr inbounds nuw i8, ptr %2, i64 8
  %.pre.i = load ptr, ptr %.phi.trans.insert.i, align 8
  br label %Vec_IntPush.exit

18:                                               ; preds = %11
  %19 = icmp slt i32 %15, 16
  br i1 %19, label %20, label %28

20:                                               ; preds = %18
  %21 = getelementptr inbounds nuw i8, ptr %2, i64 8
  %22 = load ptr, ptr %21, align 8
  %.not9.i.i = icmp eq ptr %22, null
  br i1 %.not9.i.i, label %25, label %23

23:                                               ; preds = %20
  %24 = tail call dereferenceable_or_null(64) ptr @realloc(ptr noundef nonnull %22, i64 noundef 64) #39
  br label %Vec_IntGrow.exit.i

25:                                               ; preds = %20
  %26 = tail call noalias dereferenceable_or_null(64) ptr @malloc(i64 noundef 64) #40
  br label %Vec_IntGrow.exit.i

Vec_IntGrow.exit.i:                               ; preds = %25, %23
  %27 = phi ptr [ %24, %23 ], [ %26, %25 ]
  store ptr %27, ptr %21, align 8
  store i32 16, ptr %2, align 8
  br label %Vec_IntPush.exit

28:                                               ; preds = %18
  %29 = shl nuw nsw i32 %15, 1
  %30 = getelementptr inbounds nuw i8, ptr %2, i64 8
  %31 = load ptr, ptr %30, align 8
  %.not9.i9.i = icmp eq ptr %31, null
  %32 = zext nneg i32 %29 to i64
  %33 = shl nuw nsw i64 %32, 2
  br i1 %.not9.i9.i, label %36, label %34

34:                                               ; preds = %28
  %35 = tail call ptr @realloc(ptr noundef nonnull %31, i64 noundef %33) #39
  br label %38

36:                                               ; preds = %28
  %37 = tail call noalias ptr @malloc(i64 noundef %33) #40
  br label %38

38:                                               ; preds = %36, %34
  %39 = phi ptr [ %35, %34 ], [ %37, %36 ]
  store ptr %39, ptr %30, align 8
  store i32 %29, ptr %2, align 8
  br label %Vec_IntPush.exit

Vec_IntPush.exit:                                 ; preds = %.Vec_IntGrow.exit10_crit_edge.i, %Vec_IntGrow.exit.i, %38
  %40 = phi ptr [ %.pre.i, %.Vec_IntGrow.exit10_crit_edge.i ], [ %39, %38 ], [ %27, %Vec_IntGrow.exit.i ]
  %41 = load i32, ptr %14, align 4
  %42 = add nsw i32 %41, 1
  store i32 %42, ptr %14, align 4
  %43 = sext i32 %41 to i64
  %44 = getelementptr inbounds i32, ptr %40, i64 %43
  store i32 %1, ptr %44, align 4
  br label %45

45:                                               ; preds = %5, %Vec_IntPush.exit
  ret void
}